target datalayout = "e-m:e-p270:32:32-p271:32:32-p272:64:64-i64:64-i128:128-f80:128-n8:16:32:64-S128"
target triple = "x86_64-pc-linux-gnu"

@.str.67 = private unnamed_addr constant [41 x i8] c"Converting network into AIG has failed.\0A\00", align 1

; Function Attrs: nounwind uwtable
define i32 @Abc_NtkDarDemiterNew(ptr noundef %0) #0 {
  %2 = alloca i32, align 4
  %3 = alloca ptr, align 8
  %4 = alloca ptr, align 8
  store ptr %0, ptr %3, align 8
  %5 = load ptr, ptr %3, align 8
  %6 = call ptr @Abc_NtkToDar(ptr noundef %5, i32 noundef 0, i32 noundef 1)
  store ptr %6, ptr %4, align 8
  %7 = load ptr, ptr %4, align 8
  %8 = icmp eq ptr %7, null
  br i1 %8, label %9, label %10

9:                                                ; preds = %1
  call void (i32, ptr, ...) @Abc_Print(i32 noundef 1, ptr noundef @.str.67)
  store i32 0, ptr %2, align 4
  br label %14

10:                                               ; preds = %1
  %11 = load ptr, ptr %4, align 8
  %12 = call i32 @Saig_ManDemiterNew(ptr noundef %11)
  %13 = load ptr, ptr %4, align 8
  call void @Aig_ManStop(ptr noundef %13)
  store i32 1, ptr %2, align 4
  br label %14

14:                                               ; preds = %10, %9
  %15 = load i32, ptr %2, align 4
  ret i32 %15
}