; Function Attrs: nounwind uwtable
define range(i32 0, 2) i32 @Abc_NtkDarDemiterNew(ptr noundef %0) local_unnamed_addr #1 {
  %2 = tail call ptr @Abc_NtkToDar(ptr noundef %0, i32 noundef 0, i32 noundef 1)
  %3 = icmp eq ptr %2, null
  br i1 %3, label %4, label %5

4:                                                ; preds = %1
  tail call void (i32, ptr, ...) @Abc_Print(i32 poison, ptr noundef nonnull @.str.67)
  br label %7

5:                                                ; preds = %1
  %6 = tail call i32 @Saig_ManDemiterNew(ptr noundef nonnull %2) #19
  tail call void @Aig_ManStop(ptr noundef nonnull %2) #19
  br label %7

7:                                                ; preds = %5, %4
  %.0 = phi i32 [ 0, %4 ], [ 1, %5 ]
  ret i32 %.0
}